; Function Attrs: mustprogress nofree norecurse nosync nounwind willreturn memory(read, argmem: readwrite, inaccessiblemem: none) uwtable
define internal noundef i32 @H5T__vlen_mem_seq_isnull(ptr readnone captures(none) %0, ptr noundef readonly captures(none) %1, ptr noundef writeonly captures(none) %2) #6 {
  %4 = load i8, ptr @H5T_init_g, align 1, !tbaa !3, !range !7, !noundef !8
  %5 = trunc nuw i8 %4 to i1
  %6 = load i8, ptr @H5_libterm_g, align 1, !range !7
  %7 = trunc nuw i8 %6 to i1
  %8 = xor i1 %7, true
  %9 = select i1 %5, i1 true, i1 %8
  br i1 %9, label %10, label %15, !prof !9

10:                                               ; preds = %3
  %.sroa.0.0.copyload = load i64, ptr %1, align 1
  %.sroa.4.0..sroa_idx = getelementptr inbounds nuw i8, ptr %1, i64 8
  %.sroa.4.0.copyload = load ptr, ptr %.sroa.4.0..sroa_idx, align 1
  %11 = icmp eq i64 %.sroa.0.0.copyload, 0
  %12 = icmp eq ptr %.sroa.4.0.copyload, null
  %13 = select i1 %11, i1 true, i1 %12
  %14 = zext i1 %13 to i8
  store i8 %14, ptr %2, align 1, !tbaa !3
  br label %15

15:                                               ; preds = %10, %3
  ret i32 0
}